; Function Attrs: mustprogress uwtable
define hidden noundef zeroext i1 @_Z13contains_varsP4exprRK13obj_hashtableI3appER11ast_managerii(ptr noundef %0, ptr noundef nonnull align 8 dereferenceable(20) %1, ptr noundef nonnull align 8 dereferenceable(976) %2, i32 noundef %3, i32 noundef %4) local_unnamed_addr #3 personality ptr @__gxx_personality_v0 {
  %6 = alloca %class.check_uninterp_consts, align 8
  %7 = alloca %class.check_pred, align 8
  call void @llvm.lifetime.start.p0(i64 24, ptr nonnull %6) #14
  store ptr getelementptr inbounds nuw inrange(-16, 24) (i8, ptr @_ZTV21check_uninterp_consts, i64 16), ptr %6, align 8, !tbaa !3
  %8 = getelementptr inbounds nuw i8, ptr %6, i64 8
  store ptr %1, ptr %8, align 8, !tbaa !6
  %9 = getelementptr inbounds nuw i8, ptr %6, i64 16
  store i32 %3, ptr %9, align 8, !tbaa !10
  %10 = getelementptr inbounds nuw i8, ptr %6, i64 20
  store i32 %4, ptr %10, align 4, !tbaa !14
  call void @llvm.lifetime.start.p0(i64 144, ptr nonnull %7) #14
  store ptr %6, ptr %7, align 8, !tbaa !15
  %11 = getelementptr inbounds nuw i8, ptr %7, i64 8
  store ptr getelementptr inbounds nuw inrange(-16, 32) (i8, ptr @_ZTV8ast_mark, i64 16), ptr %11, align 8, !tbaa !3
  %12 = getelementptr inbounds nuw i8, ptr %7, i64 24
  call void @llvm.memset.p0.i64(ptr noundef nonnull align 8 dereferenceable(16) %12, i8 0, i64 16, i1 false)
  %13 = getelementptr inbounds nuw i8, ptr %7, i64 48
  call void @llvm.memset.p0.i64(ptr noundef nonnull align 8 dereferenceable(16) %13, i8 0, i64 16, i1 false)
  %14 = getelementptr inbounds nuw i8, ptr %7, i64 64
  store ptr getelementptr inbounds nuw inrange(-16, 32) (i8, ptr @_ZTV8ast_mark, i64 16), ptr %14, align 8, !tbaa !3
  %15 = getelementptr inbounds nuw i8, ptr %7, i64 80
  call void @llvm.memset.p0.i64(ptr noundef nonnull align 8 dereferenceable(16) %15, i8 0, i64 16, i1 false)
  %16 = getelementptr inbounds nuw i8, ptr %7, i64 104
  call void @llvm.memset.p0.i64(ptr noundef nonnull align 8 dereferenceable(16) %16, i8 0, i64 16, i1 false)
  %17 = getelementptr inbounds nuw i8, ptr %7, i64 120
  %18 = ptrtoint ptr %2 to i64
  store i64 %18, ptr %17, align 8, !tbaa !17
  %19 = getelementptr inbounds nuw i8, ptr %7, i64 128
  store ptr null, ptr %19, align 8, !tbaa !19
  %20 = getelementptr inbounds nuw i8, ptr %7, i64 136
  store i8 0, ptr %20, align 8, !tbaa !23
  %21 = invoke noundef zeroext i1 @_ZN10check_predclEP4expr(ptr noundef nonnull align 8 dereferenceable(137) %7, ptr noundef %0)
          to label %22 unwind label %23

22:                                               ; preds = %5
  call void @_ZN10check_predD2Ev(ptr noundef nonnull align 8 dereferenceable(137) %7) #14
  call void @llvm.lifetime.end.p0(i64 144, ptr nonnull %7) #14
  call void @llvm.lifetime.end.p0(i64 24, ptr nonnull %6) #14
  ret i1 %21

23:                                               ; preds = %5
  %24 = landingpad { ptr, i32 }
          cleanup
  call void @_ZN10check_predD2Ev(ptr noundef nonnull align 8 dereferenceable(137) %7) #14
  call void @llvm.lifetime.end.p0(i64 144, ptr nonnull %7) #14
  call void @llvm.lifetime.end.p0(i64 24, ptr nonnull %6) #14
  resume { ptr, i32 } %24
}